; Function Attrs: mustprogress uwtable
define void @_ZNK2cv5MatOp11augAssignOrERKNS_7MatExprERNS_3MatE(ptr nocapture nonnull readnone align 8 %0, ptr noundef nonnull align 8 dereferenceable(352) %1, ptr noundef nonnull align 8 dereferenceable(96) %2) unnamed_addr #8 align 2 personality ptr @__gxx_personality_v0 {
  %4 = alloca %"class.cv::_InputArray", align 8
  %5 = alloca %"class.cv::_InputArray", align 8
  %6 = alloca %"class.cv::_OutputArray", align 8
  %7 = alloca %"class.cv::Mat", align 8
  call void @_ZN2cv3MatC1Ev(ptr noundef nonnull align 8 dereferenceable(96) %7) #21
  %8 = load ptr, ptr %1, align 8
  %9 = load ptr, ptr %8, align 8
  %10 = getelementptr inbounds i8, ptr %9, i64 24
  %11 = load ptr, ptr %10, align 8
  invoke void %11(ptr noundef nonnull align 8 dereferenceable(8) %8, ptr noundef nonnull align 8 dereferenceable(352) %1, ptr noundef nonnull align 8 dereferenceable(96) %7, i32 noundef -1)
          to label %12 unwind label %23

12:                                               ; preds = %3
  call void @llvm.lifetime.start.p0(i64 24, ptr nonnull %4)
  call void @llvm.lifetime.start.p0(i64 24, ptr nonnull %5)
  call void @llvm.lifetime.start.p0(i64 24, ptr nonnull %6)
  %13 = getelementptr inbounds i8, ptr %4, i64 16
  store i32 0, ptr %13, align 8
  %14 = getelementptr inbounds i8, ptr %4, i64 20
  store i32 0, ptr %14, align 4
  store i32 16842752, ptr %4, align 8
  %15 = getelementptr inbounds i8, ptr %4, i64 8
  store ptr %2, ptr %15, align 8
  %16 = getelementptr inbounds i8, ptr %5, i64 16
  store i32 0, ptr %16, align 8
  %17 = getelementptr inbounds i8, ptr %5, i64 20
  store i32 0, ptr %17, align 4
  store i32 16842752, ptr %5, align 8
  %18 = getelementptr inbounds i8, ptr %5, i64 8
  store ptr %7, ptr %18, align 8
  %19 = getelementptr inbounds i8, ptr %6, i64 8
  %20 = getelementptr inbounds i8, ptr %6, i64 16
  store i64 0, ptr %20, align 8
  store i32 -1040121856, ptr %6, align 8
  store ptr %2, ptr %19, align 8
  %21 = invoke noundef nonnull align 8 dereferenceable(24) ptr @_ZN2cv7noArrayEv()
          to label %.noexc unwind label %23

.noexc:                                           ; preds = %12
  invoke void @_ZN2cv10bitwise_orERKNS_11_InputArrayES2_RKNS_12_OutputArrayES2_(ptr noundef nonnull align 8 dereferenceable(24) %4, ptr noundef nonnull align 8 dereferenceable(24) %5, ptr noundef nonnull align 8 dereferenceable(24) %6, ptr noundef nonnull align 8 dereferenceable(24) %21)
          to label %22 unwind label %23

22:                                               ; preds = %.noexc
  call void @llvm.lifetime.end.p0(i64 24, ptr nonnull %4)
  call void @llvm.lifetime.end.p0(i64 24, ptr nonnull %5)
  call void @llvm.lifetime.end.p0(i64 24, ptr nonnull %6)
  call void @_ZN2cv3MatD1Ev(ptr noundef nonnull align 8 dereferenceable(96) %7) #21
  ret void

23:                                               ; preds = %.noexc, %12, %3
  %24 = landingpad { ptr, i32 }
          cleanup
  call void @_ZN2cv3MatD1Ev(ptr noundef nonnull align 8 dereferenceable(96) %7) #21
  resume { ptr, i32 } %24
}